; Function Attrs: mustprogress nounwind uwtable
define internal void @_ZN12_GLOBAL__N_112keep_cache_tD2Ev(ptr nocapture noundef nonnull readonly align 8 dereferenceable(65) %0) unnamed_addr #3 align 2 personality ptr @__gxx_personality_v0 {
  %2 = getelementptr inbounds i8, ptr %0, i64 8
  %3 = getelementptr inbounds i8, ptr %0, i64 32
  %4 = load ptr, ptr %3, align 8
  %.not.i.i.i.i = icmp eq ptr %4, null
  br i1 %.not.i.i.i.i, label %_ZNSt6vectorIN5Yosys7hashlib4dictIPNS0_5RTLIL6ModuleEbNS1_8hash_opsIS5_EEE7entry_tESaIS9_EED2Ev.exit.i, label %5

5:                                                ; preds = %1
  tail call void @_ZdlPv(ptr noundef nonnull %4) #22
  br label %_ZNSt6vectorIN5Yosys7hashlib4dictIPNS0_5RTLIL6ModuleEbNS1_8hash_opsIS5_EEE7entry_tESaIS9_EED2Ev.exit.i

_ZNSt6vectorIN5Yosys7hashlib4dictIPNS0_5RTLIL6ModuleEbNS1_8hash_opsIS5_EEE7entry_tESaIS9_EED2Ev.exit.i: ; preds = %5, %1
  %6 = load ptr, ptr %2, align 8
  %.not.i.i.i1.i = icmp eq ptr %6, null
  br i1 %.not.i.i.i1.i, label %_ZN5Yosys7hashlib4dictIPNS_5RTLIL6ModuleEbNS0_8hash_opsIS4_EEED2Ev.exit, label %7

7:                                                ; preds = %_ZNSt6vectorIN5Yosys7hashlib4dictIPNS0_5RTLIL6ModuleEbNS1_8hash_opsIS5_EEE7entry_tESaIS9_EED2Ev.exit.i
  tail call void @_ZdlPv(ptr noundef nonnull %6) #22
  br label %_ZN5Yosys7hashlib4dictIPNS_5RTLIL6ModuleEbNS0_8hash_opsIS4_EEED2Ev.exit

_ZN5Yosys7hashlib4dictIPNS_5RTLIL6ModuleEbNS0_8hash_opsIS4_EEED2Ev.exit: ; preds = %_ZNSt6vectorIN5Yosys7hashlib4dictIPNS0_5RTLIL6ModuleEbNS1_8hash_opsIS5_EEE7entry_tESaIS9_EED2Ev.exit.i, %7
  ret void
}